target datalayout = "e-m:e-p270:32:32-p271:32:32-p272:64:64-i64:64-i128:128-f80:128-n8:16:32:64-S128"
target triple = "x86_64-pc-linux-gnu"

%"struct.ODDLParser::DataArrayList" = type { i64, ptr, ptr, ptr, i64 }

; Function Attrs: mustprogress nounwind uwtable
define hidden noundef i64 @_ZN10ODDLParser13DataArrayList4sizeEv(ptr noundef nonnull align 8 dereferenceable(40) %0) #1 align 2 {
  %2 = alloca i64, align 8
  %3 = alloca ptr, align 8
  %4 = alloca i64, align 8
  %5 = alloca i32, align 4
  %6 = alloca ptr, align 8
  store ptr %0, ptr %3, align 8
  %7 = load ptr, ptr %3, align 8
  call void @llvm.lifetime.start.p0(i64 8, ptr %4) #10
  store i64 0, ptr %4, align 8
  %8 = getelementptr inbounds nuw %"struct.ODDLParser::DataArrayList", ptr %7, i32 0, i32 2
  %9 = load ptr, ptr %8, align 8
  %10 = icmp eq ptr null, %9
  br i1 %10, label %11, label %18

11:                                               ; preds = %1
  %12 = getelementptr inbounds nuw %"struct.ODDLParser::DataArrayList", ptr %7, i32 0, i32 1
  %13 = load ptr, ptr %12, align 8
  %14 = icmp ne ptr %13, null
  br i1 %14, label %15, label %16

15:                                               ; preds = %11
  store i64 1, ptr %4, align 8
  br label %16

16:                                               ; preds = %15, %11
  %17 = load i64, ptr %4, align 8
  store i64 %17, ptr %2, align 8
  store i32 1, ptr %5, align 4
  br label %32

18:                                               ; preds = %1
  call void @llvm.lifetime.start.p0(i64 8, ptr %6) #10
  %19 = getelementptr inbounds nuw %"struct.ODDLParser::DataArrayList", ptr %7, i32 0, i32 2
  %20 = load ptr, ptr %19, align 8
  store ptr %20, ptr %6, align 8
  br label %21

21:                                               ; preds = %24, %18
  %22 = load ptr, ptr %6, align 8
  %23 = icmp ne ptr null, %22
  br i1 %23, label %24, label %30

24:                                               ; preds = %21
  %25 = load i64, ptr %4, align 8
  %26 = add i64 %25, 1
  store i64 %26, ptr %4, align 8
  %27 = load ptr, ptr %6, align 8
  %28 = getelementptr inbounds nuw %"struct.ODDLParser::DataArrayList", ptr %27, i32 0, i32 2
  %29 = load ptr, ptr %28, align 8
  store ptr %29, ptr %6, align 8
  br label %21, !llvm.loop !8

30:                                               ; preds = %21
  %31 = load i64, ptr %4, align 8
  store i64 %31, ptr %2, align 8
  store i32 1, ptr %5, align 4
  call void @llvm.lifetime.end.p0(i64 8, ptr %6) #10
  br label %32

32:                                               ; preds = %30, %16
  call void @llvm.lifetime.end.p0(i64 8, ptr %4) #10
  %33 = load i64, ptr %2, align 8
  ret i64 %33
}