; Function Attrs: mustprogress nofree norecurse nosync nounwind willreturn memory(read, inaccessiblemem: none) uwtable
define hidden noundef i64 @_ZN10ODDLParser13DataArrayList4sizeEv(ptr noundef nonnull readonly align 8 captures(none) dereferenceable(40) %0) local_unnamed_addr #8 align 2 {
  %2 = getelementptr inbounds nuw i8, ptr %0, i64 16
  %3 = load ptr, ptr %2, align 8
  %4 = icmp eq ptr %3, null
  br i1 %4, label %5, label %.preheader

5:                                                ; preds = %1
  %6 = getelementptr inbounds nuw i8, ptr %0, i64 8
  %7 = load ptr, ptr %6, align 8
  %.not9 = icmp ne ptr %7, null
  %spec.select = zext i1 %.not9 to i64
  br label %.loopexit

.preheader:                                       ; preds = %1, %.preheader
  %.011 = phi ptr [ %10, %.preheader ], [ %3, %1 ]
  %.110 = phi i64 [ %8, %.preheader ], [ 0, %1 ]
  %8 = add i64 %.110, 1
  %9 = getelementptr inbounds nuw i8, ptr %.011, i64 16
  %10 = load ptr, ptr %9, align 8
  %.not = icmp eq ptr %10, null
  br i1 %.not, label %.loopexit, label %.preheader, !llvm.loop !8

.loopexit:                                        ; preds = %.preheader, %5
  %.07 = phi i64 [ %spec.select, %5 ], [ %8, %.preheader ]
  ret i64 %.07
}